target datalayout = "e-m:e-p270:32:32-p271:32:32-p272:64:64-i64:64-i128:128-f80:128-n8:16:32:64-S128"
target triple = "x86_64-pc-linux-gnu"

%"class.LIEF::PE::RichHeader" = type { %"class.LIEF::Object", i32, %"class.std::vector.39" }
%"class.LIEF::Object" = type { ptr }
%"class.std::vector.39" = type { %"struct.std::_Vector_base.40" }
%"struct.std::_Vector_base.40" = type { %"struct.std::_Vector_base<LIEF::PE::RichEntry, std::allocator<LIEF::PE::RichEntry>>::_Vector_impl" }
%"struct.std::_Vector_base<LIEF::PE::RichEntry, std::allocator<LIEF::PE::RichEntry>>::_Vector_impl" = type { %"struct.std::_Vector_base<LIEF::PE::RichEntry, std::allocator<LIEF::PE::RichEntry>>::_Vector_impl_data" }
%"struct.std::_Vector_base<LIEF::PE::RichEntry, std::allocator<LIEF::PE::RichEntry>>::_Vector_impl_data" = type { ptr, ptr, ptr }

; Function Attrs: mustprogress uwtable
define noundef nonnull align 8 dereferenceable(40) ptr @_ZN4LIEF2PE10RichHeaderaSERKS1_(ptr noundef nonnull align 8 dereferenceable(40) %0, ptr noundef nonnull align 8 dereferenceable(40) %1) #3 align 2 {
  %3 = alloca ptr, align 8
  %4 = alloca ptr, align 8
  store ptr %0, ptr %3, align 8
  store ptr %1, ptr %4, align 8
  %5 = load ptr, ptr %3, align 8
  %6 = load ptr, ptr %4, align 8
  %7 = call noundef nonnull align 8 dereferenceable(8) ptr @_ZN4LIEF6ObjectaSERKS0_(ptr noundef nonnull align 8 dereferenceable(8) %5, ptr noundef nonnull align 8 dereferenceable(8) %6)
  %8 = load ptr, ptr %4, align 8
  %9 = getelementptr inbounds %"class.LIEF::PE::RichHeader", ptr %8, i32 0, i32 1
  %10 = load i32, ptr %9, align 8
  %11 = getelementptr inbounds %"class.LIEF::PE::RichHeader", ptr %5, i32 0, i32 1
  store i32 %10, ptr %11, align 8
  %12 = getelementptr inbounds %"class.LIEF::PE::RichHeader", ptr %5, i32 0, i32 2
  %13 = load ptr, ptr %4, align 8
  %14 = getelementptr inbounds %"class.LIEF::PE::RichHeader", ptr %13, i32 0, i32 2
  %15 = call noundef nonnull align 8 dereferenceable(24) ptr @_ZNSt6vectorIN4LIEF2PE9RichEntryESaIS2_EEaSERKS4_(ptr noundef nonnull align 8 dereferenceable(24) %12, ptr noundef nonnull align 8 dereferenceable(24) %14)
  ret ptr %5
}